target datalayout = "e-m:e-p270:32:32-p271:32:32-p272:64:64-i64:64-i128:128-f80:128-n8:16:32:64-S128"
target triple = "x86_64-pc-linux-gnu"

%struct.expert_field = type { i32, i32 }

@hf_knxip_reserved = internal global i32 0, align 4
@ei_knxip_error = hidden global %struct.expert_field zeroinitializer, align 4
@.str.231 = private unnamed_addr constant [3 x i8] c"? \00", align 1
@.str.409 = private unnamed_addr constant [15 x i8] c"Expected: 0x00\00", align 1

; Function Attrs: null_pointer_is_valid sspstrong uwtable
define internal ptr @knxip_tree_add_reserved(ptr noundef %0, ptr noundef %1, i32 noundef %2, ptr noundef %3, ptr noundef %4) #0 {
  %6 = alloca ptr, align 8
  %7 = alloca ptr, align 8
  %8 = alloca i32, align 4
  %9 = alloca ptr, align 8
  %10 = alloca ptr, align 8
  %11 = alloca ptr, align 8
  store ptr %0, ptr %6, align 8
  store ptr %1, ptr %7, align 8
  store i32 %2, ptr %8, align 4
  store ptr %3, ptr %9, align 8
  store ptr %4, ptr %10, align 8
  call void @llvm.lifetime.start.p0(i64 8, ptr %11) #9
  %12 = load ptr, ptr %6, align 8
  %13 = load i32, ptr @hf_knxip_reserved, align 4
  %14 = load ptr, ptr %7, align 8
  %15 = load i32, ptr %8, align 4
  %16 = call ptr @proto_tree_add_item(ptr noundef %12, i32 noundef %13, ptr noundef %14, i32 noundef %15, i32 noundef 1, i32 noundef 0)
  store ptr %16, ptr %11, align 8
  %17 = load ptr, ptr %7, align 8
  %18 = load i32, ptr %8, align 4
  %19 = call zeroext i8 @tvb_get_uint8(ptr noundef %17, i32 noundef %18)
  %20 = icmp ne i8 %19, 0
  br i1 %20, label %21, label %31

21:                                               ; preds = %5
  %22 = load ptr, ptr %11, align 8
  call void (ptr, ptr, ...) @proto_item_prepend_text(ptr noundef %22, ptr noundef @.str.231)
  %23 = load ptr, ptr %9, align 8
  %24 = load ptr, ptr %11, align 8
  %25 = call ptr (ptr, ptr, ptr, ptr, ...) @expert_add_info_format(ptr noundef %23, ptr noundef %24, ptr noundef @ei_knxip_error, ptr noundef @.str.409)
  %26 = load ptr, ptr %10, align 8
  %27 = icmp ne ptr %26, null
  br i1 %27, label %28, label %30

28:                                               ; preds = %21
  %29 = load ptr, ptr %10, align 8
  store i8 0, ptr %29, align 1
  br label %30

30:                                               ; preds = %28, %21
  br label %31

31:                                               ; preds = %30, %5
  %32 = load ptr, ptr %11, align 8
  call void @llvm.lifetime.end.p0(i64 8, ptr %11) #9
  ret ptr %32
}