; Function Attrs: null_pointer_is_valid sspstrong uwtable
define internal fastcc void @knxip_tree_add_reserved(ptr noundef %0, ptr noundef %1, i32 noundef %2, ptr noundef %3, ptr noundef writeonly captures(address_is_null) %4) unnamed_addr #0 {
  %6 = load i32, ptr @hf_knxip_reserved, align 4
  %7 = tail call ptr @proto_tree_add_item(ptr noundef %0, i32 noundef %6, ptr noundef %1, i32 noundef %2, i32 noundef 1, i32 noundef 0)
  %8 = tail call zeroext i8 @tvb_get_uint8(ptr noundef %1, i32 noundef %2)
  %.not = icmp eq i8 %8, 0
  br i1 %.not, label %12, label %9

9:                                                ; preds = %5
  tail call void (ptr, ptr, ...) @proto_item_prepend_text(ptr noundef %7, ptr noundef nonnull @.str.231)
  %10 = tail call ptr (ptr, ptr, ptr, ptr, ...) @expert_add_info_format(ptr noundef %3, ptr noundef %7, ptr noundef nonnull @ei_knxip_error, ptr noundef nonnull @.str.409)
  %.not10 = icmp eq ptr %4, null
  br i1 %.not10, label %12, label %11

11:                                               ; preds = %9
  store i8 0, ptr %4, align 1
  br label %12

12:                                               ; preds = %9, %11, %5
  ret void
}